; ModuleID = '62/2114.c'
source_filename = "62/2114.c"
target datalayout = "e-m:e-p270:32:32-p271:32:32-p272:64:64-i64:64-f80:128-n8:16:32:64-S128"
target triple = "x86_64-pc-linux-gnu"

; Function Attrs: noinline nounwind uwtable
define dso_local i32 @main() #0 {
  %1 = alloca i32, align 4
  %2 = alloca i8, align 1
  %3 = alloca i32, align 4
  store i32 0, i32* %1, align 4
  store i32 0, i32* %3, align 4
  br label %4

4:                                                ; preds = %29, %0
  %5 = call i32 @getchar()
  %6 = trunc i32 %5 to i8
  store i8 %6, i8* %2, align 1
  %7 = sext i8 %6 to i32
  %8 = icmp ne i32 %7, 10
  br i1 %8, label %9, label %30

9:                                                ; preds = %4
  %10 = load i8, i8* %2, align 1
  %11 = sext i8 %10 to i32
  %12 = icmp eq i32 %11, 32
  br i1 %12, label %13, label %20

13:                                               ; preds = %9
  %14 = load i32, i32* %3, align 4
  %15 = icmp eq i32 %14, 0
  br i1 %15, label %16, label %20

16:                                               ; preds = %13
  %17 = load i8, i8* %2, align 1
  %18 = sext i8 %17 to i32
  %19 = call i32 @putchar(i32 %18)
  store i32 1, i32* %3, align 4
  br label %29

20:                                               ; preds = %13, %9
  %21 = load i8, i8* %2, align 1
  %22 = sext i8 %21 to i32
  %23 = icmp ne i32 %22, 32
  br i1 %23, label %24, label %28

24:                                               ; preds = %20
  store i32 0, i32* %3, align 4
  %25 = load i8, i8* %2, align 1
  %26 = sext i8 %25 to i32
  %27 = call i32 @putchar(i32 %26)
  br label %28

28:                                               ; preds = %24, %20
  br label %29

29:                                               ; preds = %28, %16
  br label %4

30:                                               ; preds = %4
  %31 = call i32 @getchar()
  %32 = call i32 @getchar()
  %33 = call i32 @getchar()
  %34 = load i32, i32* %1, align 4
  ret i32 %34
}

declare dso_local i32 @getchar() #1

declare dso_local i32 @putchar(i32) #1


!llvm.module.flags = !{!0}
!llvm.ident = !{!1}

!0 = !{i32 1, !"wchar_size", i32 4}
!1 = !{!"clang version 10.0.0-4ubuntu1 "}
